; Function Attrs: mustprogress nounwind uwtable
define dso_local { ptr, i8 } @_ZN4llvm11Instruction25getDbgReinsertionPositionEv(ptr noundef nonnull align 8 dereferenceable(72) %0) local_unnamed_addr #3 align 2 {
  %2 = getelementptr inbounds i8, ptr %0, i64 40
  %3 = load ptr, ptr %2, align 8
  %4 = tail call noundef ptr @_ZN4llvm10BasicBlock13getNextMarkerEPNS_11InstructionE(ptr noundef nonnull align 8 dereferenceable(80) %3, ptr noundef nonnull %0) #21
  %.not = icmp eq ptr %4, null
  br i1 %.not, label %12, label %5

5:                                                ; preds = %1
  %6 = getelementptr inbounds nuw i8, ptr %4, i64 8
  %7 = load ptr, ptr %6, align 8
  %8 = icmp eq ptr %6, %7
  br i1 %8, label %12, label %9

9:                                                ; preds = %5
  %10 = getelementptr inbounds i8, ptr %4, i64 16
  %11 = load ptr, ptr %10, align 8
  br label %12

12:                                               ; preds = %5, %1, %9
  %.sroa.04.0 = phi ptr [ %11, %9 ], [ undef, %1 ], [ undef, %5 ]
  %.sroa.2.0 = phi i8 [ 1, %9 ], [ 0, %1 ], [ 0, %5 ]
  %.fca.0.insert = insertvalue { ptr, i8 } poison, ptr %.sroa.04.0, 0
  %.fca.1.insert = insertvalue { ptr, i8 } %.fca.0.insert, i8 %.sroa.2.0, 1
  ret { ptr, i8 } %.fca.1.insert
}